; Function Attrs: mustprogress uwtable
define noundef i64 @_Z14fast_rv64e_luiP11processor_t6insn_tm(ptr nocapture noundef writeonly %0, i64 %1, i64 noundef %2) local_unnamed_addr #5 personality ptr @__gxx_personality_v0 {
  %4 = shl i64 %1, 32
  %5 = ashr exact i64 %4, 32
  %6 = and i64 %5, -4096
  %7 = lshr i64 %1, 7
  %8 = and i64 %7, 31
  %9 = icmp ugt i64 %8, 15
  br i1 %9, label %10, label %15

10:                                               ; preds = %3
  %11 = tail call ptr @__cxa_allocate_exception(i64 32) #16
  %12 = getelementptr inbounds i8, ptr %11, i64 8
  store i64 2, ptr %12, align 8
  %13 = getelementptr inbounds i8, ptr %11, i64 16
  store i8 0, ptr %13, align 8
  %14 = getelementptr inbounds i8, ptr %11, i64 24
  store i64 %1, ptr %14, align 8
  store ptr getelementptr inbounds ({ [12 x ptr] }, ptr @_ZTV24trap_illegal_instruction, i64 0, i32 0, i64 2), ptr %11, align 8
  tail call void @__cxa_throw(ptr nonnull %11, ptr nonnull @_ZTI24trap_illegal_instruction, ptr nonnull @_ZN24trap_illegal_instructionD2Ev) #17
  unreachable

15:                                               ; preds = %3
  %.not.i = icmp eq i64 %8, 0
  br i1 %.not.i, label %_ZN9regfile_tImLm32ELb1EE5writeEmm.exit, label %16

16:                                               ; preds = %15
  %17 = getelementptr inbounds i8, ptr %0, i64 120
  %18 = getelementptr inbounds [32 x i64], ptr %17, i64 0, i64 %8
  store i64 %6, ptr %18, align 8
  br label %_ZN9regfile_tImLm32ELb1EE5writeEmm.exit

_ZN9regfile_tImLm32ELb1EE5writeEmm.exit:          ; preds = %15, %16
  %19 = add i64 %2, 4
  ret i64 %19
}